; Function Attrs: nounwind uwtable
define range(i32 -1, 1) i32 @KINSetNoMinEps(ptr noundef writeonly %0, i32 noundef %1) local_unnamed_addr #0 {
  %3 = icmp eq ptr %0, null
  br i1 %3, label %4, label %5

4:                                                ; preds = %2
  tail call void (ptr, i32, ptr, ptr, ptr, ...) @KINProcessError(ptr noundef null, i32 noundef -1, ptr noundef nonnull @.str, ptr noundef nonnull @.str.29, ptr noundef nonnull @.str.2) #6
  br label %7

5:                                                ; preds = %2
  %6 = getelementptr inbounds nuw i8, ptr %0, i64 84
  store i32 %1, ptr %6, align 4
  br label %7

7:                                                ; preds = %5, %4
  %.0 = phi i32 [ -1, %4 ], [ 0, %5 ]
  ret i32 %.0
}